target datalayout = "e-m:e-p270:32:32-p271:32:32-p272:64:64-i64:64-i128:128-f80:128-n8:16:32:64-S128"
target triple = "x86_64-unknown-linux-gnu"

%"class.base::SampleVector" = type { %"class.base::HistogramSamples", %"class.std::vector", ptr, i64, ptr }
%"class.base::HistogramSamples" = type { ptr, %"struct.base::HistogramSamples::Metadata", ptr }
%"struct.base::HistogramSamples::Metadata" = type <{ i64, i64, i32, [4 x i8] }>
%"class.std::vector" = type { %"struct.std::_Vector_base" }
%"struct.std::_Vector_base" = type { %"struct.std::_Vector_base<int, std::allocator<int>>::_Vector_impl" }
%"struct.std::_Vector_base<int, std::allocator<int>>::_Vector_impl" = type { %"struct.std::_Vector_base<int, std::allocator<int>>::_Vector_impl_data" }
%"struct.std::_Vector_base<int, std::allocator<int>>::_Vector_impl_data" = type { ptr, ptr, ptr }

; Function Attrs: mustprogress nounwind uwtable
define linkonce_odr dso_local noundef i32 @_ZN4base6subtle25NoBarrier_AtomicIncrementEPVii(ptr noundef %ptr, i32 noundef %increment) #2 comdat {
entry:
  %this.addr.i = alloca ptr, align 8
  %__i.addr.i = alloca i32, align 4
  %__m.addr.i = alloca i32, align 4
  %.atomictmp.i = alloca i32, align 4
  %atomic-temp.i = alloca i32, align 4
  %ptr.addr = alloca ptr, align 8
  %increment.addr = alloca i32, align 4
  store ptr %ptr, ptr %ptr.addr, align 8
  store i32 %increment, ptr %increment.addr, align 4
  %0 = load i32, ptr %increment.addr, align 4
  %1 = load ptr, ptr %ptr.addr, align 8
  %2 = load i32, ptr %increment.addr, align 4
  store ptr %1, ptr %this.addr.i, align 8
  store i32 %2, ptr %__i.addr.i, align 4
  store i32 0, ptr %__m.addr.i, align 4
  %this1.i = load ptr, ptr %this.addr.i, align 8
  %3 = load i32, ptr %__m.addr.i, align 4
  %4 = load i32, ptr %__i.addr.i, align 4
  store i32 %4, ptr %.atomictmp.i, align 4
  switch i32 %3, label %monotonic.i [
    i32 1, label %acquire.i
    i32 2, label %acquire.i
    i32 3, label %release.i
    i32 4, label %acqrel.i
    i32 5, label %seqcst.i
  ]

monotonic.i:                                      ; preds = %entry
  %5 = load i32, ptr %.atomictmp.i, align 4
  %6 = atomicrmw volatile add ptr %this1.i, i32 %5 monotonic, align 4
  store i32 %6, ptr %atomic-temp.i, align 4
  br label %_ZNVSt13__atomic_baseIiE9fetch_addEiSt12memory_order.exit

acquire.i:                                        ; preds = %entry, %entry
  %7 = load i32, ptr %.atomictmp.i, align 4
  %8 = atomicrmw volatile add ptr %this1.i, i32 %7 acquire, align 4
  store i32 %8, ptr %atomic-temp.i, align 4
  br label %_ZNVSt13__atomic_baseIiE9fetch_addEiSt12memory_order.exit

release.i:                                        ; preds = %entry
  %9 = load i32, ptr %.atomictmp.i, align 4
  %10 = atomicrmw volatile add ptr %this1.i, i32 %9 release, align 4
  store i32 %10, ptr %atomic-temp.i, align 4
  br label %_ZNVSt13__atomic_baseIiE9fetch_addEiSt12memory_order.exit

acqrel.i:                                         ; preds = %entry
  %11 = load i32, ptr %.atomictmp.i, align 4
  %12 = atomicrmw volatile add ptr %this1.i, i32 %11 acq_rel, align 4
  store i32 %12, ptr %atomic-temp.i, align 4
  br label %_ZNVSt13__atomic_baseIiE9fetch_addEiSt12memory_order.exit

seqcst.i:                                         ; preds = %entry
  %13 = load i32, ptr %.atomictmp.i, align 4
  %14 = atomicrmw volatile add ptr %this1.i, i32 %13 seq_cst, align 4
  store i32 %14, ptr %atomic-temp.i, align 4
  br label %_ZNVSt13__atomic_baseIiE9fetch_addEiSt12memory_order.exit

_ZNVSt13__atomic_baseIiE9fetch_addEiSt12memory_order.exit: ; preds = %seqcst.i, %acqrel.i, %release.i, %acquire.i, %monotonic.i
  %15 = load i32, ptr %atomic-temp.i, align 4
  %add = add nsw i32 %0, %15
  ret i32 %add
}

; Function Attrs: mustprogress uwtable
define dso_local void @_ZN4base12SampleVector10AccumulateEii(ptr noundef nonnull align 8 dereferenceable(88) %this, i32 noundef %value, i32 noundef %count) unnamed_addr #0 align 2 {
entry:
  %this.addr = alloca ptr, align 8
  %value.addr = alloca i32, align 4
  %count.addr = alloca i32, align 4
  %bucket_index = alloca i64, align 8
  store ptr %this, ptr %this.addr, align 8
  store i32 %value, ptr %value.addr, align 4
  store i32 %count, ptr %count.addr, align 4
  %this1 = load ptr, ptr %this.addr, align 8
  %0 = load i32, ptr %value.addr, align 4
  %vtable = load ptr, ptr %this1, align 8
  %vfn = getelementptr inbounds ptr, ptr %vtable, i64 11
  %1 = load ptr, ptr %vfn, align 8
  %call = call noundef i64 %1(ptr noundef nonnull align 8 dereferenceable(88) %this1, i32 noundef %0)
  store i64 %call, ptr %bucket_index, align 8
  %counts_ = getelementptr inbounds %"class.base::SampleVector", ptr %this1, i32 0, i32 2
  %2 = load ptr, ptr %counts_, align 8
  %3 = load i64, ptr %bucket_index, align 8
  %arrayidx = getelementptr inbounds i32, ptr %2, i64 %3
  %4 = load i32, ptr %count.addr, align 4
  %call2 = call noundef i32 @_ZN4base6subtle25NoBarrier_AtomicIncrementEPVii(ptr noundef %arrayidx, i32 noundef %4)
  %5 = load i32, ptr %count.addr, align 4
  %conv = sext i32 %5 to i64
  %6 = load i32, ptr %value.addr, align 4
  %conv3 = sext i32 %6 to i64
  %mul = mul nsw i64 %conv, %conv3
  call void @_ZN4base16HistogramSamples11IncreaseSumEl(ptr noundef nonnull align 8 dereferenceable(40) %this1, i64 noundef %mul)
  %7 = load i32, ptr %count.addr, align 4
  call void @_ZN4base16HistogramSamples22IncreaseRedundantCountEi(ptr noundef nonnull align 8 dereferenceable(40) %this1, i32 noundef %7)
  ret void
}