; Function Attrs: mustprogress uwtable
define dso_local void @_ZN4base12SampleVector10AccumulateEii(ptr noundef nonnull align 8 dereferenceable(88) %this, i32 noundef %value, i32 noundef %count) unnamed_addr #0 align 2 {
entry:
  %vtable = load ptr, ptr %this, align 8
  %vfn = getelementptr inbounds i8, ptr %vtable, i64 88
  %0 = load ptr, ptr %vfn, align 8
  %call = tail call noundef i64 %0(ptr noundef nonnull align 8 dereferenceable(88) %this, i32 noundef %value)
  %counts_ = getelementptr inbounds i8, ptr %this, i64 64
  %1 = load ptr, ptr %counts_, align 8
  %arrayidx = getelementptr inbounds i32, ptr %1, i64 %call
  %2 = atomicrmw volatile add ptr %arrayidx, i32 %count monotonic, align 4
  %conv = sext i32 %count to i64
  %conv3 = sext i32 %value to i64
  %mul = mul nsw i64 %conv, %conv3
  tail call void @_ZN4base16HistogramSamples11IncreaseSumEl(ptr noundef nonnull align 8 dereferenceable(40) %this, i64 noundef %mul)
  tail call void @_ZN4base16HistogramSamples22IncreaseRedundantCountEi(ptr noundef nonnull align 8 dereferenceable(40) %this, i32 noundef %count)
  ret void
}